target datalayout = "e-m:e-p270:32:32-p271:32:32-p272:64:64-i64:64-i128:128-f80:128-n8:16:32:64-S128"
target triple = "x86_64-pc-linux-gnu"

%struct.strbuf = type { i64, i64, ptr }
%struct.rev_info = type { ptr, %struct.object_array, ptr, %struct.object_array, %struct.rev_cmdline_info, %struct.list_objects_filter_options, %struct.ref_exclusions, ptr, ptr, ptr, %struct.pathspec, i32, i32, i32, i32, i64, i32, i32, %struct.date_mode, i32, i32, i32, i32, ptr, i32, i32, ptr, ptr, i32, ptr, ptr, %struct.ident_split, ptr, i32, ptr, ptr, ptr, i32, i32, i32, ptr, %struct.grep_opt, ptr, i32, i32, i64, i64, i64, i32, i32, ptr, ptr, ptr, %struct.diff_options, %struct.diff_options, ptr, %struct.decoration, %struct.decoration, %struct.decoration, %struct.display_notes_opt, ptr, ptr, ptr, ptr, ptr, i32, ptr, i32, i32, i32, %struct.decoration, ptr, ptr, ptr, ptr, ptr, ptr, ptr, i32, ptr, i32, ptr, %struct.oidset }
%struct.object_array = type { i32, i32, ptr }
%struct.rev_cmdline_info = type { i32, i32, ptr }
%struct.list_objects_filter_options = type { %struct.strbuf, i32, i8, ptr, i64, i64, i32, i64, i64, ptr }
%struct.ref_exclusions = type { %struct.string_list, %struct.strvec, i8 }
%struct.string_list = type { ptr, i64, i64, i8, ptr }
%struct.strvec = type { ptr, i64, i64 }
%struct.pathspec = type { i32, i8, i32, i32, ptr }
%struct.date_mode = type { i32, i32, ptr }
%struct.ident_split = type { ptr, ptr, ptr, ptr, ptr, ptr, ptr, ptr }
%struct.grep_opt = type { ptr, ptr, ptr, ptr, ptr, ptr, i32, i32, i32, i32, i32, i32, i32, i32, i32, i32, i32, i32, i32, i32, i32, i32, i32, i32, i32, i32, i32, i32, i32, i32, i32, i32, [9 x [75 x i8]], i32, i32, i32, i32, i32, i32, i32, ptr, ptr, ptr }
%struct.diff_options = type { ptr, ptr, i32, i32, ptr, i32, ptr, i64, i64, ptr, ptr, ptr, ptr, %struct.diff_flags, i32, i32, i32, i32, i32, i32, i32, i32, i32, i32, i32, i32, i32, i32, i32, i32, i32, i32, i32, i32, i32, i32, ptr, i32, ptr, i32, i32, ptr, i64, i64, i32, i32, i32, i32, ptr, i32, i32, ptr, i32, i32, ptr, ptr, i32, [3 x i8], %struct.pathspec, ptr, ptr, ptr, ptr, ptr, ptr, ptr, ptr, i32, ptr, i32, i32, ptr, ptr, i32 }
%struct.diff_flags = type { i32, i32, i32, i32, i32, i32, i32, i32, i32, i32, i32, i32, i32, i32, i32, i32, i32, i32, i32, i32, i32, i32, i32, i32, i32, i32, i32, i32, i32, i32, i32, i32, i32, i32, i32 }
%struct.display_notes_opt = type { i32, %struct.string_list }
%struct.decoration = type { ptr, i32, i32, ptr }
%struct.oidset = type { %struct.kh_oid_set }
%struct.kh_oid_set = type { i32, i32, i32, i32, ptr, ptr, ptr }
%struct.setup_revision_opt = type { ptr, ptr, i8, i32 }

; Function Attrs: inlinehint nounwind uwtable
define internal void @diff_flags_or(ptr noundef %0, ptr noundef %1) #3 {
  %3 = alloca ptr, align 8
  %4 = alloca ptr, align 8
  %5 = alloca ptr, align 8
  %6 = alloca ptr, align 8
  %7 = alloca i64, align 8
  store ptr %0, ptr %3, align 8, !tbaa !191
  store ptr %1, ptr %4, align 8, !tbaa !191
  call void @llvm.lifetime.start.p0(i64 8, ptr %5) #11
  %8 = load ptr, ptr %3, align 8, !tbaa !191
  store ptr %8, ptr %5, align 8, !tbaa !124
  call void @llvm.lifetime.start.p0(i64 8, ptr %6) #11
  %9 = load ptr, ptr %4, align 8, !tbaa !191
  store ptr %9, ptr %6, align 8, !tbaa !124
  call void @llvm.lifetime.start.p0(i64 8, ptr %7) #11
  store i64 0, ptr %7, align 8, !tbaa !61
  br label %10

10:                                               ; preds = %27, %2
  %11 = load i64, ptr %7, align 8, !tbaa !61
  %12 = icmp ult i64 %11, 140
  br i1 %12, label %14, label %13

13:                                               ; preds = %10
  call void @llvm.lifetime.end.p0(i64 8, ptr %7) #11
  br label %30

14:                                               ; preds = %10
  %15 = load ptr, ptr %6, align 8, !tbaa !124
  %16 = load i64, ptr %7, align 8, !tbaa !61
  %17 = getelementptr inbounds nuw i8, ptr %15, i64 %16
  %18 = load i8, ptr %17, align 1, !tbaa !159
  %19 = sext i8 %18 to i32
  %20 = load ptr, ptr %5, align 8, !tbaa !124
  %21 = load i64, ptr %7, align 8, !tbaa !61
  %22 = getelementptr inbounds nuw i8, ptr %20, i64 %21
  %23 = load i8, ptr %22, align 1, !tbaa !159
  %24 = sext i8 %23 to i32
  %25 = or i32 %24, %19
  %26 = trunc i32 %25 to i8
  store i8 %26, ptr %22, align 1, !tbaa !159
  br label %27

27:                                               ; preds = %14
  %28 = load i64, ptr %7, align 8, !tbaa !61
  %29 = add i64 %28, 1
  store i64 %29, ptr %7, align 8, !tbaa !61
  br label %10, !llvm.loop !201

30:                                               ; preds = %13
  call void @llvm.lifetime.end.p0(i64 8, ptr %6) #11
  call void @llvm.lifetime.end.p0(i64 8, ptr %5) #11
  ret void
}

; Function Attrs: nounwind uwtable
define dso_local i32 @index_differs_from(ptr noundef %0, ptr noundef %1, ptr noundef %2, i32 noundef %3) #0 {
  %5 = alloca ptr, align 8
  %6 = alloca ptr, align 8
  %7 = alloca ptr, align 8
  %8 = alloca i32, align 4
  %9 = alloca %struct.rev_info, align 8
  %10 = alloca %struct.setup_revision_opt, align 8
  %11 = alloca i32, align 4
  store ptr %0, ptr %5, align 8, !tbaa !127
  store ptr %1, ptr %6, align 8, !tbaa !124
  store ptr %2, ptr %7, align 8, !tbaa !191
  store i32 %3, ptr %8, align 4, !tbaa !9
  call void @llvm.lifetime.start.p0(i64 3008, ptr %9) #11
  call void @llvm.lifetime.start.p0(i64 24, ptr %10) #11
  call void @llvm.lifetime.start.p0(i64 4, ptr %11) #11
  %12 = load ptr, ptr %5, align 8, !tbaa !127
  call void @repo_init_revisions(ptr noundef %12, ptr noundef %9, ptr noundef null)
  call void @llvm.memset.p0.i64(ptr align 8 %10, i8 0, i64 24, i1 false)
  %13 = load ptr, ptr %6, align 8, !tbaa !124
  %14 = getelementptr inbounds nuw %struct.setup_revision_opt, ptr %10, i32 0, i32 0
  store ptr %13, ptr %14, align 8, !tbaa !193
  %15 = call i32 @setup_revisions(i32 noundef 0, ptr noundef null, ptr noundef %9, ptr noundef %10)
  %16 = getelementptr inbounds nuw %struct.rev_info, ptr %9, i32 0, i32 53
  %17 = getelementptr inbounds nuw %struct.diff_options, ptr %16, i32 0, i32 13
  %18 = getelementptr inbounds nuw %struct.diff_flags, ptr %17, i32 0, i32 10
  store i32 1, ptr %18, align 8, !tbaa !195
  %19 = getelementptr inbounds nuw %struct.rev_info, ptr %9, i32 0, i32 53
  %20 = getelementptr inbounds nuw %struct.diff_options, ptr %19, i32 0, i32 13
  %21 = getelementptr inbounds nuw %struct.diff_flags, ptr %20, i32 0, i32 13
  store i32 1, ptr %21, align 4, !tbaa !196
  %22 = load ptr, ptr %7, align 8, !tbaa !191
  %23 = icmp ne ptr %22, null
  br i1 %23, label %24, label %40

24:                                               ; preds = %4
  %25 = getelementptr inbounds nuw %struct.rev_info, ptr %9, i32 0, i32 53
  %26 = getelementptr inbounds nuw %struct.diff_options, ptr %25, i32 0, i32 13
  %27 = load ptr, ptr %7, align 8, !tbaa !191
  call void @diff_flags_or(ptr noundef %26, ptr noundef %27)
  %28 = load ptr, ptr %7, align 8, !tbaa !191
  %29 = getelementptr inbounds nuw %struct.diff_flags, ptr %28, i32 0, i32 27
  %30 = load i32, ptr %29, align 4, !tbaa !197
  %31 = icmp ne i32 %30, 0
  br i1 %31, label %32, label %39

32:                                               ; preds = %24
  %33 = load ptr, ptr %7, align 8, !tbaa !191
  %34 = getelementptr inbounds nuw %struct.diff_flags, ptr %33, i32 0, i32 17
  %35 = load i32, ptr %34, align 4, !tbaa !198
  %36 = getelementptr inbounds nuw %struct.rev_info, ptr %9, i32 0, i32 53
  %37 = getelementptr inbounds nuw %struct.diff_options, ptr %36, i32 0, i32 13
  %38 = getelementptr inbounds nuw %struct.diff_flags, ptr %37, i32 0, i32 17
  store i32 %35, ptr %38, align 4, !tbaa !199
  br label %39

39:                                               ; preds = %32, %24
  br label %40

40:                                               ; preds = %39, %4
  %41 = load i32, ptr %8, align 4, !tbaa !9
  %42 = getelementptr inbounds nuw %struct.rev_info, ptr %9, i32 0, i32 53
  %43 = getelementptr inbounds nuw %struct.diff_options, ptr %42, i32 0, i32 34
  store i32 %41, ptr %43, align 4, !tbaa !118
  call void @run_diff_index(ptr noundef %9, i32 noundef 1)
  %44 = getelementptr inbounds nuw %struct.rev_info, ptr %9, i32 0, i32 53
  %45 = getelementptr inbounds nuw %struct.diff_options, ptr %44, i32 0, i32 13
  %46 = getelementptr inbounds nuw %struct.diff_flags, ptr %45, i32 0, i32 9
  %47 = load i32, ptr %46, align 4, !tbaa !200
  store i32 %47, ptr %11, align 4, !tbaa !9
  call void @release_revisions(ptr noundef %9)
  %48 = load i32, ptr %11, align 4, !tbaa !9
  %49 = icmp ne i32 %48, 0
  %50 = zext i1 %49 to i32
  call void @llvm.lifetime.end.p0(i64 4, ptr %11) #11
  call void @llvm.lifetime.end.p0(i64 24, ptr %10) #11
  call void @llvm.lifetime.end.p0(i64 3008, ptr %9) #11
  ret i32 %50
}