; Function Attrs: nounwind uwtable
define dso_local range(i32 0, 2) i32 @index_differs_from(ptr noundef %0, ptr noundef %1, ptr noundef readonly %2, i32 noundef %3) local_unnamed_addr #0 {
  %5 = alloca %struct.rev_info, align 8
  %6 = alloca %struct.setup_revision_opt, align 8
  call void @llvm.lifetime.start.p0(i64 3008, ptr nonnull %5) #15
  call void @llvm.lifetime.start.p0(i64 24, ptr nonnull %6) #15
  call void @repo_init_revisions(ptr noundef %0, ptr noundef nonnull %5, ptr noundef null) #15
  %7 = getelementptr inbounds nuw i8, ptr %6, i64 8
  call void @llvm.memset.p0.i64(ptr noundef nonnull align 8 dereferenceable(24) %7, i8 0, i64 16, i1 false)
  store ptr %1, ptr %6, align 8, !tbaa !169
  %8 = call i32 @setup_revisions(i32 noundef 0, ptr noundef null, ptr noundef nonnull %5, ptr noundef nonnull %6) #15
  %9 = getelementptr inbounds nuw i8, ptr %5, i64 1608
  store i32 1, ptr %9, align 8, !tbaa !171
  %10 = getelementptr inbounds nuw i8, ptr %5, i64 1620
  store i32 1, ptr %10, align 4, !tbaa !172
  %.not = icmp eq ptr %2, null
  br i1 %.not, label %26, label %11

11:                                               ; preds = %4
  %12 = getelementptr inbounds nuw i8, ptr %5, i64 1568
  br label %13

13:                                               ; preds = %13, %11
  %.07.i = phi i64 [ 0, %11 ], [ %19, %13 ]
  %14 = getelementptr inbounds nuw i8, ptr %2, i64 %.07.i
  %15 = load i8, ptr %14, align 1, !tbaa !138
  %16 = getelementptr inbounds nuw i8, ptr %12, i64 %.07.i
  %17 = load i8, ptr %16, align 1, !tbaa !138
  %18 = or i8 %17, %15
  store i8 %18, ptr %16, align 1, !tbaa !138
  %19 = add nuw nsw i64 %.07.i, 1
  %exitcond.not.i = icmp eq i64 %19, 140
  br i1 %exitcond.not.i, label %diff_flags_or.exit, label %13, !llvm.loop !173

diff_flags_or.exit:                               ; preds = %13
  %20 = getelementptr inbounds nuw i8, ptr %2, i64 108
  %21 = load i32, ptr %20, align 4, !tbaa !174
  %.not7 = icmp eq i32 %21, 0
  br i1 %.not7, label %26, label %22

22:                                               ; preds = %diff_flags_or.exit
  %23 = getelementptr inbounds nuw i8, ptr %2, i64 68
  %24 = load i32, ptr %23, align 4, !tbaa !175
  %25 = getelementptr inbounds nuw i8, ptr %5, i64 1636
  store i32 %24, ptr %25, align 4, !tbaa !176
  br label %26

26:                                               ; preds = %diff_flags_or.exit, %22, %4
  %27 = getelementptr inbounds nuw i8, ptr %5, i64 1788
  store i32 %3, ptr %27, align 4, !tbaa !109
  call void @run_diff_index(ptr noundef nonnull %5, i32 noundef 1)
  %28 = getelementptr inbounds nuw i8, ptr %5, i64 1604
  %29 = load i32, ptr %28, align 4, !tbaa !177
  call void @release_revisions(ptr noundef nonnull %5) #15
  %30 = icmp ne i32 %29, 0
  %31 = zext i1 %30 to i32
  call void @llvm.lifetime.end.p0(i64 24, ptr nonnull %6) #15
  call void @llvm.lifetime.end.p0(i64 3008, ptr nonnull %5) #15
  ret i32 %31
}